; Function Attrs: mustprogress uwtable
define internal fastcc void @_ZN8facebook5velox12_GLOBAL__N_120printEncodingAndTypeERKNS0_10BaseVectorERKNSt7__cxx1112basic_stringIcSt11char_traitsIcESaIcEEERNS5_19basic_ostringstreamIcS8_S9_EE(ptr noundef nonnull align 8 dereferenceable(99) %vector, ptr noundef nonnull align 8 dereferenceable(32) %indent, ptr noundef nonnull align 8 dereferenceable(112) %out) unnamed_addr #2 personality ptr @__gxx_personality_v0 {
entry:
  %ss.i = alloca %"class.std::__cxx11::basic_stringstream", align 8
  %ref.tmp = alloca %"class.std::__cxx11::basic_string", align 8
  %ref.tmp6 = alloca %"class.std::__cxx11::basic_string", align 8
  %call = tail call noundef nonnull align 8 dereferenceable(8) ptr @_ZStlsIcSt11char_traitsIcESaIcEERSt13basic_ostreamIT_T0_ES7_RKNSt7__cxx1112basic_stringIS4_S5_T1_EE(ptr noundef nonnull align 8 dereferenceable(8) %out, ptr noundef nonnull align 8 dereferenceable(32) %indent)
  %encoding_.i = getelementptr inbounds i8, ptr %vector, i64 28
  %0 = load i32, ptr %encoding_.i, align 4
  call void @llvm.lifetime.start.p0(i64 392, ptr nonnull %ss.i)
  call void @_ZNSt7__cxx1118basic_stringstreamIcSt11char_traitsIcESaIcEEC1Ev(ptr noundef nonnull align 8 dereferenceable(128) %ss.i), !noalias !79
  %1 = icmp ult i32 %0, 10
  br i1 %1, label %switch.lookup, label %invoke.cont.i

switch.lookup:                                    ; preds = %entry
  %add.ptr.i = getelementptr inbounds i8, ptr %ss.i, i64 16
  %2 = zext nneg i32 %0 to i64
  %switch.gep = getelementptr inbounds [10 x ptr], ptr @switch.table._ZN8facebook5velox12_GLOBAL__N_120printEncodingAndTypeERKNS0_10BaseVectorERKNSt7__cxx1112basic_stringIcSt11char_traitsIcESaIcEEERNS5_19basic_ostringstreamIcS8_S9_EE, i64 0, i64 %2
  %switch.load = load ptr, ptr %switch.gep, align 8
  %call18.i1.i = invoke noundef nonnull align 8 dereferenceable(8) ptr @_ZStlsISt11char_traitsIcEERSt13basic_ostreamIcT_ES5_PKc(ptr noundef nonnull align 8 dereferenceable(8) %add.ptr.i, ptr noundef nonnull %switch.load)
          to label %invoke.cont.i unwind label %lpad.i, !noalias !79

invoke.cont.i:                                    ; preds = %entry, %switch.lookup
  invoke void @_ZNKSt7__cxx1118basic_stringstreamIcSt11char_traitsIcESaIcEE3strEv(ptr nonnull sret(%"class.std::__cxx11::basic_string") align 8 %ref.tmp, ptr noundef nonnull align 8 dereferenceable(128) %ss.i)
          to label %_ZN8facebook5velox14VectorEncoding15mapSimpleToNameB5cxx11ERKNS1_6SimpleE.exit unwind label %lpad.i

common.resume:                                    ; preds = %ehcleanup, %lpad.i
  %common.resume.op = phi { ptr, i32 } [ %3, %lpad.i ], [ %.pn, %ehcleanup ]
  resume { ptr, i32 } %common.resume.op

lpad.i:                                           ; preds = %invoke.cont.i, %switch.lookup
  %3 = landingpad { ptr, i32 }
          cleanup
  call void @_ZNSt7__cxx1118basic_stringstreamIcSt11char_traitsIcESaIcEED1Ev(ptr noundef nonnull align 8 dereferenceable(128) %ss.i) #20
  br label %common.resume

_ZN8facebook5velox14VectorEncoding15mapSimpleToNameB5cxx11ERKNS1_6SimpleE.exit: ; preds = %invoke.cont.i
  call void @_ZNSt7__cxx1118basic_stringstreamIcSt11char_traitsIcESaIcEED1Ev(ptr noundef nonnull align 8 dereferenceable(128) %ss.i) #20
  call void @llvm.lifetime.end.p0(i64 392, ptr nonnull %ss.i)
  %call3 = invoke noundef nonnull align 8 dereferenceable(8) ptr @_ZStlsIcSt11char_traitsIcESaIcEERSt13basic_ostreamIT_T0_ES7_RKNSt7__cxx1112basic_stringIS4_S5_T1_EE(ptr noundef nonnull align 8 dereferenceable(8) %call, ptr noundef nonnull align 8 dereferenceable(32) %ref.tmp)
          to label %invoke.cont unwind label %lpad

invoke.cont:                                      ; preds = %_ZN8facebook5velox14VectorEncoding15mapSimpleToNameB5cxx11ERKNS1_6SimpleE.exit
  %call5 = invoke noundef nonnull align 8 dereferenceable(8) ptr @_ZStlsISt11char_traitsIcEERSt13basic_ostreamIcT_ES5_PKc(ptr noundef nonnull align 8 dereferenceable(8) %call3, ptr noundef nonnull @.str.5)
          to label %invoke.cont4 unwind label %lpad

invoke.cont4:                                     ; preds = %invoke.cont
  %type_.i = getelementptr inbounds i8, ptr %vector, i64 8
  %4 = load ptr, ptr %type_.i, align 8
  %vtable = load ptr, ptr %4, align 8
  %vfn = getelementptr inbounds i8, ptr %vtable, i64 80
  %5 = load ptr, ptr %vfn, align 8
  invoke void %5(ptr nonnull sret(%"class.std::__cxx11::basic_string") align 8 %ref.tmp6, ptr noundef nonnull align 8 dereferenceable(17) %4)
          to label %invoke.cont9 unwind label %lpad

invoke.cont9:                                     ; preds = %invoke.cont4
  %call12 = invoke noundef nonnull align 8 dereferenceable(8) ptr @_ZStlsIcSt11char_traitsIcESaIcEERSt13basic_ostreamIT_T0_ES7_RKNSt7__cxx1112basic_stringIS4_S5_T1_EE(ptr noundef nonnull align 8 dereferenceable(8) %call5, ptr noundef nonnull align 8 dereferenceable(32) %ref.tmp6)
          to label %invoke.cont11 unwind label %lpad10

invoke.cont11:                                    ; preds = %invoke.cont9
  %call14 = invoke noundef nonnull align 8 dereferenceable(8) ptr @_ZStlsISt11char_traitsIcEERSt13basic_ostreamIcT_ES5_PKc(ptr noundef nonnull align 8 dereferenceable(8) %call12, ptr noundef nonnull @.str.13)
          to label %invoke.cont13 unwind label %lpad10

invoke.cont13:                                    ; preds = %invoke.cont11
  call void @_ZNSt7__cxx1112basic_stringIcSt11char_traitsIcESaIcEED1Ev(ptr noundef nonnull align 8 dereferenceable(32) %ref.tmp6) #20
  call void @_ZNSt7__cxx1112basic_stringIcSt11char_traitsIcESaIcEED1Ev(ptr noundef nonnull align 8 dereferenceable(32) %ref.tmp) #20
  call fastcc void @_ZN8facebook5velox12_GLOBAL__N_121printSizeAndNullCountERKNS0_10BaseVectorERNSt7__cxx1119basic_ostringstreamIcSt11char_traitsIcESaIcEEE(ptr noundef nonnull align 8 dereferenceable(99) %vector, ptr noundef nonnull align 8 dereferenceable(112) %out)
  %call15 = call noundef nonnull align 8 dereferenceable(8) ptr @_ZNSolsEPFRSoS_E(ptr noundef nonnull align 8 dereferenceable(8) %out, ptr noundef nonnull @_ZSt4endlIcSt11char_traitsIcEERSt13basic_ostreamIT_T0_ES6_)
  ret void

lpad:                                             ; preds = %invoke.cont4, %invoke.cont, %_ZN8facebook5velox14VectorEncoding15mapSimpleToNameB5cxx11ERKNS1_6SimpleE.exit
  %6 = landingpad { ptr, i32 }
          cleanup
  br label %ehcleanup

lpad10:                                           ; preds = %invoke.cont11, %invoke.cont9
  %7 = landingpad { ptr, i32 }
          cleanup
  call void @_ZNSt7__cxx1112basic_stringIcSt11char_traitsIcESaIcEED1Ev(ptr noundef nonnull align 8 dereferenceable(32) %ref.tmp6) #20
  br label %ehcleanup

ehcleanup:                                        ; preds = %lpad10, %lpad
  %.pn = phi { ptr, i32 } [ %7, %lpad10 ], [ %6, %lpad ]
  call void @_ZNSt7__cxx1112basic_stringIcSt11char_traitsIcESaIcEED1Ev(ptr noundef nonnull align 8 dereferenceable(32) %ref.tmp) #20
  br label %common.resume
}